; Function Attrs: nounwind uwtable
define dso_local void @lua_pushlstring(ptr noundef %0, ptr noundef %1, i64 noundef %2) local_unnamed_addr #1 {
  %4 = getelementptr inbounds nuw i8, ptr %0, i64 16
  %5 = load i64, ptr %4, align 8, !tbaa !21
  %6 = inttoptr i64 %5 to ptr
  %7 = getelementptr inbounds nuw i8, ptr %6, i64 16
  %8 = load i64, ptr %7, align 8, !tbaa !29
  %9 = getelementptr inbounds nuw i8, ptr %6, i64 24
  %10 = load i64, ptr %9, align 8, !tbaa !39
  %.not = icmp ult i64 %8, %10
  br i1 %.not, label %13, label %11, !prof !27

11:                                               ; preds = %3
  %12 = tail call i32 @lj_gc_step(ptr noundef nonnull %0) #13
  br label %13

13:                                               ; preds = %11, %3
  %14 = tail call ptr @lj_str_new(ptr noundef nonnull %0, ptr noundef %1, i64 noundef %2) #13
  %15 = getelementptr inbounds nuw i8, ptr %0, i64 40
  %16 = load ptr, ptr %15, align 8, !tbaa !14
  %17 = ptrtoint ptr %14 to i64
  %18 = or i64 %17, -703687441776640
  store i64 %18, ptr %16, align 8, !tbaa !17
  %19 = load ptr, ptr %15, align 8, !tbaa !14
  %20 = getelementptr inbounds nuw i8, ptr %19, i64 8
  store ptr %20, ptr %15, align 8, !tbaa !14
  %21 = getelementptr inbounds nuw i8, ptr %0, i64 48
  %22 = load i64, ptr %21, align 8, !tbaa !16
  %23 = inttoptr i64 %22 to ptr
  %.not11 = icmp ult ptr %20, %23
  br i1 %.not11, label %25, label %24

24:                                               ; preds = %13
  tail call void @lj_state_growstack1(ptr noundef nonnull %0) #13
  br label %25

25:                                               ; preds = %24, %13
  ret void
}